target datalayout = "e-m:e-p270:32:32-p271:32:32-p272:64:64-i64:64-i128:128-f80:128-n8:16:32:64-S128"
target triple = "x86_64-pc-linux-gnu"

%struct.SurfaceDataRasInfo = type { %struct.SurfaceDataBounds, ptr, i32, i32, i32, i32, ptr, ptr, ptr, ptr, ptr, ptr, i32, %union.anon.0 }
%struct.SurfaceDataBounds = type { i32, i32, i32, i32 }
%union.anon.0 = type { ptr, [56 x i8] }
%struct._CompositeInfo = type { i32, %union.anon.1, i32 }
%union.anon.1 = type { float }

; Function Attrs: nounwind uwtable
define hidden void @Any3ByteIsomorphicXorCopy(ptr noundef %0, ptr noundef %1, i32 noundef %2, i32 noundef %3, ptr noundef %4, ptr noundef %5, ptr noundef %6, ptr noundef %7) #0 {
  %9 = alloca ptr, align 8
  %10 = alloca ptr, align 8
  %11 = alloca i32, align 4
  %12 = alloca i32, align 4
  %13 = alloca ptr, align 8
  %14 = alloca ptr, align 8
  %15 = alloca ptr, align 8
  %16 = alloca ptr, align 8
  %17 = alloca i32, align 4
  %18 = alloca i8, align 1
  %19 = alloca i8, align 1
  %20 = alloca i8, align 1
  %21 = alloca ptr, align 8
  %22 = alloca ptr, align 8
  %23 = alloca i32, align 4
  %24 = alloca i32, align 4
  %25 = alloca i32, align 4
  store ptr %0, ptr %9, align 8
  store ptr %1, ptr %10, align 8
  store i32 %2, ptr %11, align 4
  store i32 %3, ptr %12, align 4
  store ptr %4, ptr %13, align 8
  store ptr %5, ptr %14, align 8
  store ptr %6, ptr %15, align 8
  store ptr %7, ptr %16, align 8
  %26 = load ptr, ptr %16, align 8
  %27 = getelementptr inbounds %struct._CompositeInfo, ptr %26, i32 0, i32 1
  %28 = load i32, ptr %27, align 4
  store i32 %28, ptr %17, align 4
  br label %29

29:                                               ; preds = %8
  %30 = load i32, ptr %17, align 4
  %31 = trunc i32 %30 to i8
  store i8 %31, ptr %18, align 1
  %32 = load i32, ptr %17, align 4
  %33 = ashr i32 %32, 8
  %34 = trunc i32 %33 to i8
  store i8 %34, ptr %19, align 1
  %35 = load i32, ptr %17, align 4
  %36 = ashr i32 %35, 16
  %37 = trunc i32 %36 to i8
  store i8 %37, ptr %20, align 1
  br label %38

38:                                               ; preds = %29
  br label %39

39:                                               ; preds = %38
  %40 = load ptr, ptr %9, align 8
  store ptr %40, ptr %21, align 8
  %41 = load ptr, ptr %10, align 8
  store ptr %41, ptr %22, align 8
  %42 = load ptr, ptr %13, align 8
  %43 = getelementptr inbounds %struct.SurfaceDataRasInfo, ptr %42, i32 0, i32 4
  %44 = load i32, ptr %43, align 8
  store i32 %44, ptr %23, align 4
  %45 = load ptr, ptr %14, align 8
  %46 = getelementptr inbounds %struct.SurfaceDataRasInfo, ptr %45, i32 0, i32 4
  %47 = load i32, ptr %46, align 8
  store i32 %47, ptr %24, align 4
  %48 = load i32, ptr %11, align 4
  %49 = mul i32 %48, 3
  %50 = load i32, ptr %23, align 4
  %51 = sub i32 %50, %49
  store i32 %51, ptr %23, align 4
  %52 = load i32, ptr %11, align 4
  %53 = mul i32 %52, 3
  %54 = load i32, ptr %24, align 4
  %55 = sub i32 %54, %53
  store i32 %55, ptr %24, align 4
  br label %56

56:                                               ; preds = %125, %39
  %57 = load i32, ptr %11, align 4
  store i32 %57, ptr %25, align 4
  br label %58

58:                                               ; preds = %108, %56
  br label %59

59:                                               ; preds = %58
  %60 = load ptr, ptr %21, align 8
  %61 = getelementptr inbounds i8, ptr %60, i64 0
  %62 = load i8, ptr %61, align 1
  %63 = zext i8 %62 to i32
  %64 = load i8, ptr %18, align 1
  %65 = zext i8 %64 to i32
  %66 = xor i32 %63, %65
  %67 = load ptr, ptr %22, align 8
  %68 = getelementptr inbounds i8, ptr %67, i64 0
  %69 = load i8, ptr %68, align 1
  %70 = zext i8 %69 to i32
  %71 = xor i32 %70, %66
  %72 = trunc i32 %71 to i8
  store i8 %72, ptr %68, align 1
  %73 = load ptr, ptr %21, align 8
  %74 = getelementptr inbounds i8, ptr %73, i64 1
  %75 = load i8, ptr %74, align 1
  %76 = zext i8 %75 to i32
  %77 = load i8, ptr %19, align 1
  %78 = zext i8 %77 to i32
  %79 = xor i32 %76, %78
  %80 = load ptr, ptr %22, align 8
  %81 = getelementptr inbounds i8, ptr %80, i64 1
  %82 = load i8, ptr %81, align 1
  %83 = zext i8 %82 to i32
  %84 = xor i32 %83, %79
  %85 = trunc i32 %84 to i8
  store i8 %85, ptr %81, align 1
  %86 = load ptr, ptr %21, align 8
  %87 = getelementptr inbounds i8, ptr %86, i64 2
  %88 = load i8, ptr %87, align 1
  %89 = zext i8 %88 to i32
  %90 = load i8, ptr %20, align 1
  %91 = zext i8 %90 to i32
  %92 = xor i32 %89, %91
  %93 = load ptr, ptr %22, align 8
  %94 = getelementptr inbounds i8, ptr %93, i64 2
  %95 = load i8, ptr %94, align 1
  %96 = zext i8 %95 to i32
  %97 = xor i32 %96, %92
  %98 = trunc i32 %97 to i8
  store i8 %98, ptr %94, align 1
  br label %99

99:                                               ; preds = %59
  %100 = load ptr, ptr %21, align 8
  %101 = ptrtoint ptr %100 to i64
  %102 = add nsw i64 %101, 3
  %103 = inttoptr i64 %102 to ptr
  store ptr %103, ptr %21, align 8
  %104 = load ptr, ptr %22, align 8
  %105 = ptrtoint ptr %104 to i64
  %106 = add nsw i64 %105, 3
  %107 = inttoptr i64 %106 to ptr
  store ptr %107, ptr %22, align 8
  br label %108

108:                                              ; preds = %99
  %109 = load i32, ptr %25, align 4
  %110 = add i32 %109, -1
  store i32 %110, ptr %25, align 4
  %111 = icmp ugt i32 %110, 0
  br i1 %111, label %58, label %112, !llvm.loop !32

112:                                              ; preds = %108
  %113 = load ptr, ptr %21, align 8
  %114 = ptrtoint ptr %113 to i64
  %115 = load i32, ptr %23, align 4
  %116 = sext i32 %115 to i64
  %117 = add nsw i64 %114, %116
  %118 = inttoptr i64 %117 to ptr
  store ptr %118, ptr %21, align 8
  %119 = load ptr, ptr %22, align 8
  %120 = ptrtoint ptr %119 to i64
  %121 = load i32, ptr %24, align 4
  %122 = sext i32 %121 to i64
  %123 = add nsw i64 %120, %122
  %124 = inttoptr i64 %123 to ptr
  store ptr %124, ptr %22, align 8
  br label %125

125:                                              ; preds = %112
  %126 = load i32, ptr %12, align 4
  %127 = add i32 %126, -1
  store i32 %127, ptr %12, align 4
  %128 = icmp ugt i32 %127, 0
  br i1 %128, label %56, label %129, !llvm.loop !33

129:                                              ; preds = %125
  br label %130

130:                                              ; preds = %129
  ret void
}