; Function Attrs: nofree norecurse nosync nounwind memory(readwrite, inaccessiblemem: none) uwtable
define hidden void @Any3ByteIsomorphicXorCopy(ptr noundef %0, ptr noundef %1, i32 noundef %2, i32 noundef %3, ptr nocapture noundef readonly %4, ptr nocapture noundef readonly %5, ptr nocapture noundef readnone %6, ptr nocapture noundef readonly %7) local_unnamed_addr #2 {
  %9 = getelementptr inbounds i8, ptr %7, i64 4
  %10 = load i32, ptr %9, align 4
  %11 = lshr i32 %10, 8
  %12 = lshr i32 %10, 16
  %13 = getelementptr inbounds i8, ptr %4, i64 32
  %14 = load i32, ptr %13, align 8
  %15 = getelementptr inbounds i8, ptr %5, i64 32
  %16 = load i32, ptr %15, align 8
  %17 = mul i32 %2, 3
  %18 = sub i32 %14, %17
  %19 = sub i32 %16, %17
  %20 = sext i32 %18 to i64
  %21 = trunc i32 %10 to i8
  %22 = trunc i32 %11 to i8
  %23 = trunc i32 %12 to i8
  %24 = sext i32 %19 to i64
  br label %25

25:                                               ; preds = %50, %8
  %.032 = phi i32 [ %3, %8 ], [ %55, %50 ]
  %.030 = phi ptr [ %0, %8 ], [ %52, %50 ]
  %.029 = phi ptr [ %1, %8 ], [ %54, %50 ]
  br label %26

26:                                               ; preds = %26, %25
  %.131 = phi ptr [ %.030, %25 ], [ %45, %26 ]
  %.1 = phi ptr [ %.029, %25 ], [ %48, %26 ]
  %.0 = phi i32 [ %2, %25 ], [ %49, %26 ]
  %27 = load i8, ptr %.131, align 1
  %28 = load i8, ptr %.1, align 1
  %29 = xor i8 %27, %21
  %30 = xor i8 %29, %28
  store i8 %30, ptr %.1, align 1
  %31 = getelementptr inbounds i8, ptr %.131, i64 1
  %32 = load i8, ptr %31, align 1
  %33 = getelementptr inbounds i8, ptr %.1, i64 1
  %34 = load i8, ptr %33, align 1
  %35 = xor i8 %32, %22
  %36 = xor i8 %35, %34
  store i8 %36, ptr %33, align 1
  %37 = getelementptr inbounds i8, ptr %.131, i64 2
  %38 = load i8, ptr %37, align 1
  %39 = getelementptr inbounds i8, ptr %.1, i64 2
  %40 = load i8, ptr %39, align 1
  %41 = xor i8 %38, %23
  %42 = xor i8 %41, %40
  store i8 %42, ptr %39, align 1
  %43 = ptrtoint ptr %.131 to i64
  %44 = add nsw i64 %43, 3
  %45 = inttoptr i64 %44 to ptr
  %46 = ptrtoint ptr %.1 to i64
  %47 = add nsw i64 %46, 3
  %48 = inttoptr i64 %47 to ptr
  %49 = add i32 %.0, -1
  %.not = icmp eq i32 %49, 0
  br i1 %.not, label %50, label %26, !llvm.loop !32

50:                                               ; preds = %26
  %51 = add nsw i64 %44, %20
  %52 = inttoptr i64 %51 to ptr
  %53 = add nsw i64 %47, %24
  %54 = inttoptr i64 %53 to ptr
  %55 = add i32 %.032, -1
  %.not34 = icmp eq i32 %55, 0
  br i1 %.not34, label %56, label %25, !llvm.loop !33

56:                                               ; preds = %50
  ret void
}